Certificate:
    Data:
        Version: 3 (0x2)
        Serial Number: 6533 (0x1985)
    Signature Algorithm: sha1WithRSAEncryption
        Issuer: C=CN, ST=Beijing, L=Beijing, O=mz.com, OU=mz, CN=www.mz.com/emailAddress=mz1985@163.com
        Validity
            Not Before: Dec 21 06:02:56 2017 GMT
            Not After : Dec 21 06:02:56 2018 GMT
        Subject: C=CN, ST=Beijing, O=mz.com, OU=mz, CN=www.mz.com/emailAddress=mz1985@163.com
        Subject Public Key Info:
            Public Key Algorithm: rsaEncryption
                Public-Key: (1024 bit)
                Modulus:
                    00:db:44:a4:e5:2f:93:89:43:10:a2:b2:28:08:a5:
                    dd:7c:f4:58:13:54:79:e1:e5:65:1a:ba:7b:29:27:
                    62:0d:f0:eb:a2:ed:5c:c6:d7:23:4e:31:e7:19:ca:
                    dd:8b:32:d9:e6:84:a4:0d:85:ad:d2:dd:58:44:34:
                    5a:c3:69:a3:8c:0b:98:cc:78:ce:a7:db:cb:9a:3a:
                    09:61:5a:ee:8e:cb:c9:36:55:8b:3f:8f:b6:dc:d8:
                    4c:c9:2c:ba:d5:20:96:32:cf:b2:35:e7:8f:00:d7:
                    2a:7a:02:5c:2a:c2:76:69:4c:59:2f:1c:1c:bb:7a:
                    5a:9f:29:6d:f6:1c:5c:11:21
                Exponent: 65537 (0x10001)
        X509v3 extensions:
            X509v3 Basic Constraints: 
                CA:FALSE
            Netscape Comment: 
                OpenSSL Generated Certificate
            X509v3 Subject Key Identifier: 
                46:9B:C6:AD:2E:26:78:FA:6E:90:88:02:51:67:70:DD:AA:ED:AE:E3
            X509v3 Authority Key Identifier: 
                keyid:AF:C0:9D:C4:AE:4A:5F:FC:9B:13:7E:AA:E0:01:BC:1C:00:25:24:4A

    Signature Algorithm: sha1WithRSAEncryption
         bf:14:a0:57:2e:6d:bb:93:3e:bc:a5:88:1c:e7:06:92:19:59:
         d0:15:ed:92:41:80:92:d3:6d:22:9a:32:a9:3b:9d:05:40:2e:
         48:d2:48:2b:27:ad:18:5a:ea:5e:5e:eb:a6:30:1a:b1:f1:b1:
         58:b4:ae:2e:e2:80:08:1e:dd:19:19:f0:4b:b7:b2:2c:b6:f0:
         66:01:8c:ff:40:ad:fb:4b:0b:6e:2d:2a:67:b9:41:db:40:21:
         43:05:0a:ae:96:30:8d:59:5e:95:23:e1:e2:a1:a4:89:61:a3:
         e8:cb:f9:44:ae:12:72:89:f4:a6:fa:5d:9b:19:aa:3d:13:80:
         3f:53:8a:97:5a:5e:de:f0:de:ce:2c:6a:47:9e:ea:9e:a9:bc:
         fd:08:f5:f1:34:1a:ed:31:5a:62:a5:40:ab:9b:19:60:ce:bf:
         4d:44:97:07:9c:ae:ce:cd:91:97:e0:d7:2a:7d:58:c8:48:38:
         29:e6:52:f4:52:be:8f:d9:3f:13:af:d7:89:c2:7d:ea:85:30:
         09:d5:7d:77:99:2e:2e:c1:c7:c9:e0:8f:12:d7:79:63:66:66:
         39:d6:94:d5:43:56:c0:c4:fa:c9:bf:90:9b:0e:84:a0:14:01:
         0e:1b:22:8e:42:a4:74:47:f6:15:cf:e4:85:ba:95:8a:34:9c:
         99:d6:b1:6e
-----BEGIN CERTIFICATE-----
MIIDaDCCAlCgAwIBAgICGYUwDQYJKoZIhvcNAQEFBQAwgYMxCzAJBgNVBAYTAkNO
MRAwDgYDVQQIDAdCZWlqaW5nMRAwDgYDVQQHDAdCZWlqaW5nMQ8wDQYDVQQKDAZt
ei5jb20xCzAJBgNVBAsMAm16MRMwEQYDVQQDDAp3d3cubXouY29tMR0wGwYJKoZI
hvcNAQkBFg5tejE5ODVAMTYzLmNvbTAeFw0xNzEyMjEwNjAyNTZaFw0xODEyMjEw
NjAyNTZaMHExCzAJBgNVBAYTAkNOMRAwDgYDVQQIDAdCZWlqaW5nMQ8wDQYDVQQK
DAZtei5jb20xCzAJBgNVBAsMAm16MRMwEQYDVQQDDAp3d3cubXouY29tMR0wGwYJ
KoZIhvcNAQkBFg5tejE5ODVAMTYzLmNvbTCBnzANBgkqhkiG9w0BAQEFAAOBjQAw
gYkCgYEA20Sk5S+TiUMQorIoCKXdfPRYE1R54eVlGrp7KSdiDfDrou1cxtcjTjHn
GcrdizLZ5oSkDYWt0t1YRDRaw2mjjAuYzHjOp9vLmjoJYVrujsvJNlWLP4+23NhM
ySy61SCWMs+yNeePANcqegJcKsJ2aUxZLxwcu3panylt9hxcESECAwEAAaN7MHkw
CQYDVR0TBAIwADAsBglghkgBhvhCAQ0EHxYdT3BlblNTTCBHZW5lcmF0ZWQgQ2Vy
dGlmaWNhdGUwHQYDVR0OBBYEFEabxq0uJnj6bpCIAlFncN2q7a7jMB8GA1UdIwQY
MBaAFK/AncSuSl/8mxN+quABvBwAJSRKMA0GCSqGSIb3DQEBBQUAA4IBAQC/FKBX
Lm27kz68pYgc5waSGVnQFe2SQYCS020imjKpO50FQC5I0kgrJ60YWupeXuumMBqx
8bFYtK4u4oAIHt0ZGfBLt7IstvBmAYz/QK37SwtuLSpnuUHbQCFDBQquljCNWV6V
I+HioaSJYaPoy/lErhJyifSm+l2bGao9E4A/U4qXWl7e8N7OLGpHnuqeqbz9CPXx
NBrtMVpipUCrmxlgzr9NRJcHnK7OzZGX4NcqfVjISDgp5lL0Ur6P2T8Tr9eJwn3q
hTAJ1X13mS4uwcfJ4I8S13ljZmY51pTVQ1bAxPrJv5CbDoSgFAEOGyKOQqR0R/YV
z+SFupWKNJyZ1rFu
-----END CERTIFICATE-----
